target datalayout = "e-m:e-p270:32:32-p271:32:32-p272:64:64-i64:64-i128:128-f80:128-n8:16:32:64-S128"
target triple = "x86_64-pc-linux-gnu"

%struct.strbuf = type { i64, i64, ptr }
%struct.oid_stat = type { %struct.stat_data, %struct.object_id, i32 }
%struct.stat_data = type { %struct.cache_time, %struct.cache_time, i32, i32, i32, i32, i32 }
%struct.cache_time = type { i32, i32 }
%struct.object_id = type { [32 x i8], i32 }
%struct.index_state = type { ptr, i32, i32, i32, i32, ptr, ptr, ptr, %struct.cache_time, i8, i32, %struct.hashmap, %struct.hashmap, %struct.object_id, ptr, ptr, ptr, ptr, ptr, ptr, ptr }
%struct.hashmap = type { ptr, ptr, ptr, i32, i32, i32, i32, i8 }
%struct.untracked_cache = type { %struct.oid_stat, %struct.oid_stat, ptr, ptr, %struct.strbuf, i32, ptr, i32, i32, i32, i32, i8 }

; Function Attrs: nounwind uwtable
define dso_local void @untracked_cache_invalidate_path(ptr noundef %0, ptr noundef %1, i32 noundef %2) #0 {
  %4 = alloca ptr, align 8
  %5 = alloca ptr, align 8
  %6 = alloca i32, align 4
  store ptr %0, ptr %4, align 8, !tbaa !41
  store ptr %1, ptr %5, align 8, !tbaa !13
  store i32 %2, ptr %6, align 4, !tbaa !16
  %7 = load ptr, ptr %4, align 8, !tbaa !41
  %8 = getelementptr inbounds nuw %struct.index_state, ptr %7, i32 0, i32 14
  %9 = load ptr, ptr %8, align 8, !tbaa !91
  %10 = icmp ne ptr %9, null
  br i1 %10, label %11, label %18

11:                                               ; preds = %3
  %12 = load ptr, ptr %4, align 8, !tbaa !41
  %13 = getelementptr inbounds nuw %struct.index_state, ptr %12, i32 0, i32 14
  %14 = load ptr, ptr %13, align 8, !tbaa !91
  %15 = getelementptr inbounds nuw %struct.untracked_cache, ptr %14, i32 0, i32 6
  %16 = load ptr, ptr %15, align 8, !tbaa !175
  %17 = icmp ne ptr %16, null
  br i1 %17, label %19, label %18

18:                                               ; preds = %11, %3
  br label %41

19:                                               ; preds = %11
  %20 = load i32, ptr %6, align 4, !tbaa !16
  %21 = icmp ne i32 %20, 0
  br i1 %21, label %27, label %22

22:                                               ; preds = %19
  %23 = load ptr, ptr %5, align 8, !tbaa !13
  %24 = call i32 @verify_path(ptr noundef %23, i32 noundef 0)
  %25 = icmp ne i32 %24, 0
  br i1 %25, label %27, label %26

26:                                               ; preds = %22
  br label %41

27:                                               ; preds = %22, %19
  %28 = load ptr, ptr %4, align 8, !tbaa !41
  %29 = getelementptr inbounds nuw %struct.index_state, ptr %28, i32 0, i32 14
  %30 = load ptr, ptr %29, align 8, !tbaa !91
  %31 = load ptr, ptr %4, align 8, !tbaa !41
  %32 = getelementptr inbounds nuw %struct.index_state, ptr %31, i32 0, i32 14
  %33 = load ptr, ptr %32, align 8, !tbaa !91
  %34 = getelementptr inbounds nuw %struct.untracked_cache, ptr %33, i32 0, i32 6
  %35 = load ptr, ptr %34, align 8, !tbaa !175
  %36 = load ptr, ptr %5, align 8, !tbaa !13
  %37 = load ptr, ptr %5, align 8, !tbaa !13
  %38 = call i64 @strlen(ptr noundef %37) #13
  %39 = trunc i64 %38 to i32
  %40 = call i32 @invalidate_one_component(ptr noundef %30, ptr noundef %35, ptr noundef %36, i32 noundef %39)
  br label %41

41:                                               ; preds = %27, %26, %18
  ret void
}