; Function Attrs: nounwind uwtable
define dso_local void @untracked_cache_invalidate_path(ptr noundef readonly captures(none) %0, ptr noundef %1, i32 noundef %2) local_unnamed_addr #0 {
  %4 = getelementptr inbounds nuw i8, ptr %0, i64 200
  %5 = load ptr, ptr %4, align 8, !tbaa !64
  %.not = icmp eq ptr %5, null
  br i1 %.not, label %18, label %6

6:                                                ; preds = %3
  %7 = getelementptr inbounds nuw i8, ptr %5, i64 200
  %8 = load ptr, ptr %7, align 8, !tbaa !65
  %.not7 = icmp eq ptr %8, null
  br i1 %.not7, label %18, label %9

9:                                                ; preds = %6
  %.not8 = icmp eq i32 %2, 0
  br i1 %.not8, label %10, label %12

10:                                               ; preds = %9
  %11 = tail call i32 @verify_path(ptr noundef %1, i32 noundef 0) #27
  %.not9 = icmp eq i32 %11, 0
  br i1 %.not9, label %18, label %._crit_edge

._crit_edge:                                      ; preds = %10
  %.pre = load ptr, ptr %4, align 8, !tbaa !64
  %.phi.trans.insert = getelementptr inbounds nuw i8, ptr %.pre, i64 200
  %.pre10 = load ptr, ptr %.phi.trans.insert, align 8, !tbaa !65
  br label %12

12:                                               ; preds = %._crit_edge, %9
  %13 = phi ptr [ %.pre10, %._crit_edge ], [ %8, %9 ]
  %14 = phi ptr [ %.pre, %._crit_edge ], [ %5, %9 ]
  %15 = tail call i64 @strlen(ptr noundef nonnull dereferenceable(1) %1) #28
  %16 = trunc i64 %15 to i32
  %17 = tail call fastcc i32 @invalidate_one_component(ptr noundef nonnull %14, ptr noundef %13, ptr noundef nonnull %1, i32 noundef %16)
  br label %18

18:                                               ; preds = %10, %3, %6, %12
  ret void
}